; Function Attrs: nounwind uwtable
define internal noundef zeroext i1 @FreeOneProperties(ptr readnone captures(none) %0, ptr readnone captures(none) %1, ptr readnone captures(none) %2, ptr noundef %3) #0 {
  %.not.i = icmp eq ptr %3, null
  br i1 %.not.i, label %SDL_FreeProperties.exit, label %5

5:                                                ; preds = %4
  %6 = load ptr, ptr %3, align 8
  tail call void @SDL_DestroyHashTable(ptr noundef %6) #6
  %7 = getelementptr inbounds nuw i8, ptr %3, i64 8
  %8 = load ptr, ptr %7, align 8
  tail call void @SDL_DestroyMutex_REAL(ptr noundef %8) #6
  tail call void @SDL_free_REAL(ptr noundef nonnull %3) #6
  br label %SDL_FreeProperties.exit

SDL_FreeProperties.exit:                          ; preds = %4, %5
  ret i1 true
}